target datalayout = "e-m:e-p270:32:32-p271:32:32-p272:64:64-i64:64-i128:128-f80:128-n8:16:32:64-S128"
target triple = "x86_64-pc-linux-gnu"

%struct.expert_field = type { i32, i32 }

@hf_isis_lsp_mt_id_reserved = internal global i32 0, align 4
@hf_isis_lsp_mt_id = internal global i32 0, align 4
@ei_isis_lsp_short_clv = internal global %struct.expert_field zeroinitializer, align 4
@.str.929 = private unnamed_addr constant [59 x i8] c"short lsp multi-topology reachable IPv4 prefixes(%d vs %d)\00", align 1

; Function Attrs: null_pointer_is_valid sspstrong uwtable
define internal void @dissect_lsp_mt_id(ptr noundef %0, ptr noundef %1, i32 noundef %2) #0 {
  %4 = alloca ptr, align 8
  %5 = alloca ptr, align 8
  %6 = alloca i32, align 4
  store ptr %0, ptr %4, align 8
  store ptr %1, ptr %5, align 8
  store i32 %2, ptr %6, align 4
  %7 = load ptr, ptr %5, align 8
  %8 = load i32, ptr @hf_isis_lsp_mt_id_reserved, align 4
  %9 = load ptr, ptr %4, align 8
  %10 = load i32, ptr %6, align 4
  %11 = call ptr @proto_tree_add_item(ptr noundef %7, i32 noundef %8, ptr noundef %9, i32 noundef %10, i32 noundef 2, i32 noundef 0)
  %12 = load ptr, ptr %5, align 8
  %13 = load i32, ptr @hf_isis_lsp_mt_id, align 4
  %14 = load ptr, ptr %4, align 8
  %15 = load i32, ptr %6, align 4
  %16 = call ptr @proto_tree_add_item(ptr noundef %12, i32 noundef %13, ptr noundef %14, i32 noundef %15, i32 noundef 2, i32 noundef 0)
  ret void
}

; Function Attrs: null_pointer_is_valid sspstrong uwtable
define internal void @dissect_lsp_mt_reachable_IPv4_prefx_clv(ptr noundef %0, ptr noundef %1, ptr noundef %2, i32 noundef %3, ptr noundef %4, i32 noundef %5) #0 {
  %7 = alloca ptr, align 8
  %8 = alloca ptr, align 8
  %9 = alloca ptr, align 8
  %10 = alloca i32, align 4
  %11 = alloca ptr, align 8
  %12 = alloca i32, align 4
  store ptr %0, ptr %7, align 8
  store ptr %1, ptr %8, align 8
  store ptr %2, ptr %9, align 8
  store i32 %3, ptr %10, align 4
  store ptr %4, ptr %11, align 8
  store i32 %5, ptr %12, align 4
  %13 = load i32, ptr %12, align 4
  %14 = icmp slt i32 %13, 2
  br i1 %14, label %15, label %22

15:                                               ; preds = %6
  %16 = load ptr, ptr %9, align 8
  %17 = load ptr, ptr %8, align 8
  %18 = load ptr, ptr %7, align 8
  %19 = load i32, ptr %10, align 4
  %20 = load i32, ptr %12, align 4
  %21 = call ptr (ptr, ptr, ptr, ptr, i32, i32, ptr, ...) @proto_tree_add_expert_format(ptr noundef %16, ptr noundef %17, ptr noundef @ei_isis_lsp_short_clv, ptr noundef %18, i32 noundef %19, i32 noundef -1, ptr noundef @.str.929, i32 noundef %20, i32 noundef 2)
  br label %33

22:                                               ; preds = %6
  %23 = load ptr, ptr %7, align 8
  %24 = load ptr, ptr %9, align 8
  %25 = load i32, ptr %10, align 4
  call void @dissect_lsp_mt_id(ptr noundef %23, ptr noundef %24, i32 noundef %25)
  %26 = load ptr, ptr %7, align 8
  %27 = load ptr, ptr %8, align 8
  %28 = load ptr, ptr %9, align 8
  %29 = load i32, ptr %10, align 4
  %30 = add i32 %29, 2
  %31 = load i32, ptr %12, align 4
  %32 = sub i32 %31, 2
  call void @dissect_lsp_ext_ip_reachability_clv(ptr noundef %26, ptr noundef %27, ptr noundef %28, i32 noundef %30, ptr noundef null, i32 noundef %32)
  br label %33

33:                                               ; preds = %22, %15
  ret void
}